target datalayout = "e-m:e-p270:32:32-p271:32:32-p272:64:64-i64:64-i128:128-f80:128-n8:16:32:64-S128"
target triple = "x86_64-unknown-linux-gnu"

%"class.sat::literal" = type { i32 }
%"struct.smt::theory_special_relations::relation" = type { ptr, %class.obj_ref, i32, ptr, %class.ptr_vector, i32, %class.svector, %"struct.smt::theory_special_relations::graph", %class.union_find_default_ctx, %class.union_find, %class.svector.16 }
%class.obj_ref = type { ptr, ptr }
%class.ptr_vector = type { %class.vector }
%class.vector = type { ptr }
%class.svector = type { %class.vector.0 }
%class.vector.0 = type { ptr }
%"struct.smt::theory_special_relations::graph" = type { %class.dl_graph }
%class.dl_graph = type { %"struct.dl_graph<smt::theory_special_relations::int_ext>::stats", %class.vector.1, %class.vector.2, %class.vector.3, %class.vector.4, %class.vector.4, %class.svector.5, %class.vector.1, %class.svector.7, %class.svector.9, %class.svector.9, %class.heap, i32, i32, %class.svector.9, %class.svector.7, %class.svector.9, %class.svector.9, %class.svector.9, i32, i32, %class.svector.11, %class.svector.9, i32, i32, %class.svector.9, %class.svector.9, %class.svector.9, %class.svector.9, %"struct.dl_graph<smt::theory_special_relations::int_ext>::dfs_state", %"struct.dl_graph<smt::theory_special_relations::int_ext>::dfs_state" }
%"struct.dl_graph<smt::theory_special_relations::int_ext>::stats" = type { i32, i32, i32, i32, i32 }
%class.vector.2 = type { ptr }
%class.vector.3 = type { ptr }
%class.vector.4 = type { ptr }
%class.svector.5 = type { %class.vector.6 }
%class.vector.6 = type { ptr }
%class.vector.1 = type { ptr }
%class.heap = type { %class.dl_var_lt, %class.svector.9, %class.svector.9 }
%class.dl_var_lt = type { ptr }
%class.svector.7 = type { %class.vector.8 }
%class.vector.8 = type { ptr }
%class.svector.11 = type { %class.vector.12 }
%class.vector.12 = type { ptr }
%class.svector.9 = type { %class.vector.10 }
%class.vector.10 = type { ptr }
%"struct.dl_graph<smt::theory_special_relations::int_ext>::dfs_state" = type <{ %class.vector.1, %class.svector.9, %class.svector.9, %class.heap.13, i32, [4 x i8] }>
%class.heap.13 = type { %"class.dl_graph<smt::theory_special_relations::int_ext>::dfs_state::hp_lt", %class.svector.9, %class.svector.9 }
%"class.dl_graph<smt::theory_special_relations::int_ext>::dfs_state::hp_lt" = type { ptr, ptr }
%class.union_find_default_ctx = type { %class.trail_stack }
%class.trail_stack = type { %class.ptr_vector.14, %class.svector.11, %class.region }
%class.ptr_vector.14 = type { %class.vector.15 }
%class.vector.15 = type { ptr }
%class.region = type { ptr, ptr, ptr, ptr, ptr }
%class.union_find = type { ptr, ptr, %class.svector.11, %class.svector.11, %class.svector.11, %"class.union_find<>::mk_var_trail" }
%"class.union_find<>::mk_var_trail" = type { %class.trail, ptr }
%class.trail = type { ptr }
%class.svector.16 = type { %class.vector.17 }
%class.vector.17 = type { ptr }

; Function Attrs: mustprogress nounwind uwtable
define linkonce_odr hidden noundef i32 @_ZNK6vectorI7svectorIijELb1EjE4sizeEv(ptr noundef nonnull align 8 dereferenceable(8) %this) #4 comdat align 2 {
entry:
  %retval = alloca i32, align 4
  %this.addr = alloca ptr, align 8
  store ptr %this, ptr %this.addr, align 8
  %this1 = load ptr, ptr %this.addr, align 8
  %m_data = getelementptr inbounds %class.vector.4, ptr %this1, i32 0, i32 0
  %0 = load ptr, ptr %m_data, align 8
  %cmp = icmp eq ptr %0, null
  br i1 %cmp, label %if.then, label %if.end

if.then:                                          ; preds = %entry
  store i32 0, ptr %retval, align 4
  br label %return

if.end:                                           ; preds = %entry
  %m_data2 = getelementptr inbounds %class.vector.4, ptr %this1, i32 0, i32 0
  %1 = load ptr, ptr %m_data2, align 8
  %arrayidx = getelementptr inbounds i32, ptr %1, i64 -1
  %2 = load i32, ptr %arrayidx, align 4
  store i32 %2, ptr %retval, align 4
  br label %return

return:                                           ; preds = %if.end, %if.then
  %3 = load i32, ptr %retval, align 4
  ret i32 %3
}

; Function Attrs: mustprogress nounwind uwtable
define linkonce_odr hidden void @_ZN6vectorIN3sat7literalELb0EjEC2Ev(ptr noundef nonnull align 8 dereferenceable(8) %this) unnamed_addr #4 comdat align 2 {
entry:
  %this.addr = alloca ptr, align 8
  store ptr %this, ptr %this.addr, align 8
  %this1 = load ptr, ptr %this.addr, align 8
  %m_data = getelementptr inbounds %class.vector.17, ptr %this1, i32 0, i32 0
  store ptr null, ptr %m_data, align 8
  ret void
}

; Function Attrs: mustprogress nounwind uwtable
define linkonce_odr hidden noundef i32 @_ZNK8dl_graphIN3smt24theory_special_relations7int_extEE13get_num_nodesEv(ptr noundef nonnull align 8 dereferenceable(368) %this) #4 comdat align 2 {
entry:
  %this.addr = alloca ptr, align 8
  store ptr %this, ptr %this.addr, align 8
  %this1 = load ptr, ptr %this.addr, align 8
  %m_out_edges = getelementptr inbounds %class.dl_graph, ptr %this1, i32 0, i32 4
  %call = call noundef i32 @_ZNK6vectorI7svectorIijELb1EjE4sizeEv(ptr noundef nonnull align 8 dereferenceable(8) %m_out_edges)
  ret i32 %call
}

; Function Attrs: mustprogress uwtable
define linkonce_odr hidden noundef nonnull align 8 dereferenceable(8) ptr @_ZN6vectorIN3sat7literalELb0EjE9push_backERKS1_(ptr noundef nonnull align 8 dereferenceable(8) %this, ptr noundef nonnull align 4 dereferenceable(4) %elem) #5 comdat align 2 {
entry:
  %this.addr = alloca ptr, align 8
  %elem.addr = alloca ptr, align 8
  store ptr %this, ptr %this.addr, align 8
  store ptr %elem, ptr %elem.addr, align 8
  %this1 = load ptr, ptr %this.addr, align 8
  %m_data = getelementptr inbounds %class.vector.17, ptr %this1, i32 0, i32 0
  %0 = load ptr, ptr %m_data, align 8
  %cmp = icmp eq ptr %0, null
  br i1 %cmp, label %if.then, label %lor.lhs.false

lor.lhs.false:                                    ; preds = %entry
  %m_data2 = getelementptr inbounds %class.vector.17, ptr %this1, i32 0, i32 0
  %1 = load ptr, ptr %m_data2, align 8
  %arrayidx = getelementptr inbounds i32, ptr %1, i64 -1
  %2 = load i32, ptr %arrayidx, align 4
  %m_data3 = getelementptr inbounds %class.vector.17, ptr %this1, i32 0, i32 0
  %3 = load ptr, ptr %m_data3, align 8
  %arrayidx4 = getelementptr inbounds i32, ptr %3, i64 -2
  %4 = load i32, ptr %arrayidx4, align 4
  %cmp5 = icmp eq i32 %2, %4
  br i1 %cmp5, label %if.then, label %if.end

if.then:                                          ; preds = %lor.lhs.false, %entry
  call void @_ZN6vectorIN3sat7literalELb0EjE13expand_vectorEv(ptr noundef nonnull align 8 dereferenceable(8) %this1)
  br label %if.end

if.end:                                           ; preds = %if.then, %lor.lhs.false
  %m_data6 = getelementptr inbounds %class.vector.17, ptr %this1, i32 0, i32 0
  %5 = load ptr, ptr %m_data6, align 8
  %m_data7 = getelementptr inbounds %class.vector.17, ptr %this1, i32 0, i32 0
  %6 = load ptr, ptr %m_data7, align 8
  %arrayidx8 = getelementptr inbounds i32, ptr %6, i64 -1
  %7 = load i32, ptr %arrayidx8, align 4
  %idx.ext = zext i32 %7 to i64
  %add.ptr = getelementptr inbounds %"class.sat::literal", ptr %5, i64 %idx.ext
  %8 = load ptr, ptr %elem.addr, align 8
  call void @llvm.memcpy.p0.p0.i64(ptr align 4 %add.ptr, ptr align 4 %8, i64 4, i1 false)
  %m_data9 = getelementptr inbounds %class.vector.17, ptr %this1, i32 0, i32 0
  %9 = load ptr, ptr %m_data9, align 8
  %arrayidx10 = getelementptr inbounds i32, ptr %9, i64 -1
  %10 = load i32, ptr %arrayidx10, align 4
  %inc = add i32 %10, 1
  store i32 %inc, ptr %arrayidx10, align 4
  ret ptr %this1
}

; Function Attrs: mustprogress nounwind uwtable
define linkonce_odr hidden void @_ZN7svectorIN3sat7literalEjEC2Ev(ptr noundef nonnull align 8 dereferenceable(8) %this) unnamed_addr #4 comdat align 2 {
entry:
  %this.addr = alloca ptr, align 8
  store ptr %this, ptr %this.addr, align 8
  %this1 = load ptr, ptr %this.addr, align 8
  %0 = getelementptr inbounds i8, ptr %this1, i64 0
  call void @llvm.memset.p0.i64(ptr align 8 %0, i8 0, i64 8, i1 false)
  call void @_ZN6vectorIN3sat7literalELb0EjEC2Ev(ptr noundef nonnull align 8 dereferenceable(8) %this1) #3
  ret void
}

; Function Attrs: mustprogress uwtable
define hidden void @_ZN3smt24theory_special_relations8relation10ensure_varEi(ptr noundef nonnull align 8 dereferenceable(552) %this, i32 noundef %v) #5 align 2 {
entry:
  %this.addr = alloca ptr, align 8
  %v.addr = alloca i32, align 4
  store ptr %this, ptr %this.addr, align 8
  store i32 %v, ptr %v.addr, align 4
  %this1 = load ptr, ptr %this.addr, align 8
  br label %while.cond

while.cond:                                       ; preds = %while.body, %entry
  %0 = load i32, ptr %v.addr, align 4
  %m_uf = getelementptr inbounds %"struct.smt::theory_special_relations::relation", ptr %this1, i32 0, i32 9
  %call = call noundef i32 @_ZN10union_findI22union_find_default_ctxS0_E6mk_varEv(ptr noundef nonnull align 8 dereferenceable(56) %m_uf)
  %cmp = icmp ugt i32 %0, %call
  br i1 %cmp, label %while.body, label %while.end

while.body:                                       ; preds = %while.cond
  br label %while.cond, !llvm.loop !7

while.end:                                        ; preds = %while.cond
  %1 = load i32, ptr %v.addr, align 4
  %m_graph = getelementptr inbounds %"struct.smt::theory_special_relations::relation", ptr %this1, i32 0, i32 7
  %call2 = call noundef i32 @_ZNK8dl_graphIN3smt24theory_special_relations7int_extEE13get_num_nodesEv(ptr noundef nonnull align 8 dereferenceable(368) %m_graph)
  %cmp3 = icmp uge i32 %1, %call2
  br i1 %cmp3, label %if.then, label %if.end

if.then:                                          ; preds = %while.end
  %m_graph4 = getelementptr inbounds %"struct.smt::theory_special_relations::relation", ptr %this1, i32 0, i32 7
  %2 = load i32, ptr %v.addr, align 4
  call void @_ZN8dl_graphIN3smt24theory_special_relations7int_extEE8init_varEi(ptr noundef nonnull align 8 dereferenceable(368) %m_graph4, i32 noundef %2)
  br label %if.end

if.end:                                           ; preds = %if.then, %while.end
  ret void
}

; Function Attrs: mustprogress uwtable
define hidden noundef zeroext i1 @_ZN3smt24theory_special_relations8relation9new_eq_ehEN3sat7literalEii(ptr noundef nonnull align 8 dereferenceable(552) %this, i32 %l.coerce, i32 noundef %v1, i32 noundef %v2) #5 align 2 personality ptr @__gxx_personality_v0 {
entry:
  %l = alloca %"class.sat::literal", align 4
  %this.addr = alloca ptr, align 8
  %v1.addr = alloca i32, align 4
  %v2.addr = alloca i32, align 4
  %ls = alloca %class.svector.16, align 8
  %exn.slot = alloca ptr, align 8
  %ehselector.slot = alloca i32, align 4
  %coerce.dive = getelementptr inbounds %"class.sat::literal", ptr %l, i32 0, i32 0
  store i32 %l.coerce, ptr %coerce.dive, align 4
  store ptr %this, ptr %this.addr, align 8
  store i32 %v1, ptr %v1.addr, align 4
  store i32 %v2, ptr %v2.addr, align 4
  %this1 = load ptr, ptr %this.addr, align 8
  %0 = load i32, ptr %v1.addr, align 4
  call void @_ZN3smt24theory_special_relations8relation10ensure_varEi(ptr noundef nonnull align 8 dereferenceable(552) %this1, i32 noundef %0)
  %1 = load i32, ptr %v2.addr, align 4
  call void @_ZN3smt24theory_special_relations8relation10ensure_varEi(ptr noundef nonnull align 8 dereferenceable(552) %this1, i32 noundef %1)
  call void @_ZN7svectorIN3sat7literalEjEC2Ev(ptr noundef nonnull align 8 dereferenceable(8) %ls)
  %call = invoke noundef nonnull align 8 dereferenceable(8) ptr @_ZN6vectorIN3sat7literalELb0EjE9push_backERKS1_(ptr noundef nonnull align 8 dereferenceable(8) %ls, ptr noundef nonnull align 4 dereferenceable(4) %l)
          to label %invoke.cont unwind label %lpad

invoke.cont:                                      ; preds = %entry
  %m_graph = getelementptr inbounds %"struct.smt::theory_special_relations::relation", ptr %this1, i32 0, i32 7
  %2 = load i32, ptr %v1.addr, align 4
  %3 = load i32, ptr %v2.addr, align 4
  %call3 = invoke noundef zeroext i1 @_ZN3smt24theory_special_relations5graph19add_non_strict_edgeEiiRK7svectorIN3sat7literalEjE(ptr noundef nonnull align 8 dereferenceable(368) %m_graph, i32 noundef %2, i32 noundef %3, ptr noundef nonnull align 8 dereferenceable(8) %ls)
          to label %invoke.cont2 unwind label %lpad

invoke.cont2:                                     ; preds = %invoke.cont
  br i1 %call3, label %land.rhs, label %land.end

land.rhs:                                         ; preds = %invoke.cont2
  %m_graph4 = getelementptr inbounds %"struct.smt::theory_special_relations::relation", ptr %this1, i32 0, i32 7
  %4 = load i32, ptr %v2.addr, align 4
  %5 = load i32, ptr %v1.addr, align 4
  %call6 = invoke noundef zeroext i1 @_ZN3smt24theory_special_relations5graph19add_non_strict_edgeEiiRK7svectorIN3sat7literalEjE(ptr noundef nonnull align 8 dereferenceable(368) %m_graph4, i32 noundef %4, i32 noundef %5, ptr noundef nonnull align 8 dereferenceable(8) %ls)
          to label %invoke.cont5 unwind label %lpad

invoke.cont5:                                     ; preds = %land.rhs
  br label %land.end

land.end:                                         ; preds = %invoke.cont5, %invoke.cont2
  %6 = phi i1 [ false, %invoke.cont2 ], [ %call6, %invoke.cont5 ]
  call void @_ZN7svectorIN3sat7literalEjED2Ev(ptr noundef nonnull align 8 dereferenceable(8) %ls) #3
  ret i1 %6

lpad:                                             ; preds = %land.rhs, %invoke.cont, %entry
  %7 = landingpad { ptr, i32 }
          cleanup
  %8 = extractvalue { ptr, i32 } %7, 0
  store ptr %8, ptr %exn.slot, align 8
  %9 = extractvalue { ptr, i32 } %7, 1
  store i32 %9, ptr %ehselector.slot, align 4
  call void @_ZN7svectorIN3sat7literalEjED2Ev(ptr noundef nonnull align 8 dereferenceable(8) %ls) #3
  br label %eh.resume

eh.resume:                                        ; preds = %lpad
  %exn = load ptr, ptr %exn.slot, align 8
  %sel = load i32, ptr %ehselector.slot, align 4
  %lpad.val = insertvalue { ptr, i32 } poison, ptr %exn, 0
  %lpad.val7 = insertvalue { ptr, i32 } %lpad.val, i32 %sel, 1
  resume { ptr, i32 } %lpad.val7
}