; Function Attrs: mustprogress uwtable
define hidden noundef zeroext i1 @_ZN3smt24theory_special_relations8relation9new_eq_ehEN3sat7literalEii(ptr noundef nonnull align 8 dereferenceable(552) %this, i32 %l.coerce, i32 noundef %v1, i32 noundef %v2) local_unnamed_addr #3 align 2 personality ptr @__gxx_personality_v0 {
entry:
  %ls = alloca %class.svector.16, align 8
  %m_uf.i = getelementptr inbounds i8, ptr %this, i64 488
  br label %while.cond.i

while.cond.i:                                     ; preds = %while.cond.i, %entry
  %call.i = tail call noundef i32 @_ZN10union_findI22union_find_default_ctxS0_E6mk_varEv(ptr noundef nonnull align 8 dereferenceable(56) %m_uf.i)
  %cmp.i = icmp ult i32 %call.i, %v1
  br i1 %cmp.i, label %while.cond.i, label %while.end.i, !llvm.loop !9

while.end.i:                                      ; preds = %while.cond.i
  %m_graph.i = getelementptr inbounds i8, ptr %this, i64 64
  %m_out_edges.i.i = getelementptr inbounds i8, ptr %this, i64 112
  %0 = load ptr, ptr %m_out_edges.i.i, align 8
  %cmp.i.i.i = icmp eq ptr %0, null
  br i1 %cmp.i.i.i, label %if.then.i, label %_ZNK8dl_graphIN3smt24theory_special_relations7int_extEE13get_num_nodesEv.exit.i

_ZNK8dl_graphIN3smt24theory_special_relations7int_extEE13get_num_nodesEv.exit.i: ; preds = %while.end.i
  %arrayidx.i.i.i = getelementptr inbounds i8, ptr %0, i64 -4
  %1 = load i32, ptr %arrayidx.i.i.i, align 4
  %cmp3.not.i = icmp ugt i32 %1, %v1
  br i1 %cmp3.not.i, label %while.cond.i6.preheader, label %if.then.i

if.then.i:                                        ; preds = %_ZNK8dl_graphIN3smt24theory_special_relations7int_extEE13get_num_nodesEv.exit.i, %while.end.i
  tail call void @_ZN8dl_graphIN3smt24theory_special_relations7int_extEE8init_varEi(ptr noundef nonnull align 8 dereferenceable(368) %m_graph.i, i32 noundef %v1)
  br label %while.cond.i6.preheader

while.cond.i6.preheader:                          ; preds = %_ZNK8dl_graphIN3smt24theory_special_relations7int_extEE13get_num_nodesEv.exit.i, %if.then.i
  br label %while.cond.i6

while.cond.i6:                                    ; preds = %while.cond.i6.preheader, %while.cond.i6
  %call.i7 = tail call noundef i32 @_ZN10union_findI22union_find_default_ctxS0_E6mk_varEv(ptr noundef nonnull align 8 dereferenceable(56) %m_uf.i)
  %cmp.i8 = icmp ult i32 %call.i7, %v2
  br i1 %cmp.i8, label %while.cond.i6, label %while.end.i9, !llvm.loop !9

while.end.i9:                                     ; preds = %while.cond.i6
  %2 = load ptr, ptr %m_out_edges.i.i, align 8
  %cmp.i.i.i12 = icmp eq ptr %2, null
  br i1 %cmp.i.i.i12, label %if.then.i16, label %_ZNK8dl_graphIN3smt24theory_special_relations7int_extEE13get_num_nodesEv.exit.i13

_ZNK8dl_graphIN3smt24theory_special_relations7int_extEE13get_num_nodesEv.exit.i13: ; preds = %while.end.i9
  %arrayidx.i.i.i14 = getelementptr inbounds i8, ptr %2, i64 -4
  %3 = load i32, ptr %arrayidx.i.i.i14, align 4
  %cmp3.not.i15 = icmp ugt i32 %3, %v2
  br i1 %cmp3.not.i15, label %if.then.i19, label %if.then.i16

if.then.i16:                                      ; preds = %_ZNK8dl_graphIN3smt24theory_special_relations7int_extEE13get_num_nodesEv.exit.i13, %while.end.i9
  tail call void @_ZN8dl_graphIN3smt24theory_special_relations7int_extEE8init_varEi(ptr noundef nonnull align 8 dereferenceable(368) %m_graph.i, i32 noundef %v2)
  br label %if.then.i19

if.then.i19:                                      ; preds = %if.then.i16, %_ZNK8dl_graphIN3smt24theory_special_relations7int_extEE13get_num_nodesEv.exit.i13
  store ptr null, ptr %ls, align 8
  invoke void @_ZN6vectorIN3sat7literalELb0EjE13expand_vectorEv(ptr noundef nonnull align 8 dereferenceable(8) %ls)
          to label %invoke.cont unwind label %lpad

invoke.cont:                                      ; preds = %if.then.i19
  %.pre.i = load ptr, ptr %ls, align 8
  %arrayidx8.phi.trans.insert.i = getelementptr inbounds i8, ptr %.pre.i, i64 -4
  %.pre1.i = load i32, ptr %arrayidx8.phi.trans.insert.i, align 4
  %idx.ext.i = zext i32 %.pre1.i to i64
  %add.ptr.i = getelementptr inbounds %"class.sat::literal", ptr %.pre.i, i64 %idx.ext.i
  store i32 %l.coerce, ptr %add.ptr.i, align 4
  %4 = load ptr, ptr %ls, align 8
  %arrayidx10.i = getelementptr inbounds i8, ptr %4, i64 -4
  %5 = load i32, ptr %arrayidx10.i, align 4
  %inc.i = add i32 %5, 1
  store i32 %inc.i, ptr %arrayidx10.i, align 4
  %call3 = invoke noundef zeroext i1 @_ZN3smt24theory_special_relations5graph19add_non_strict_edgeEiiRK7svectorIN3sat7literalEjE(ptr noundef nonnull align 8 dereferenceable(368) %m_graph.i, i32 noundef %v1, i32 noundef %v2, ptr noundef nonnull align 8 dereferenceable(8) %ls)
          to label %invoke.cont2 unwind label %lpad

invoke.cont2:                                     ; preds = %invoke.cont
  br i1 %call3, label %land.rhs, label %land.end

land.rhs:                                         ; preds = %invoke.cont2
  %call6 = invoke noundef zeroext i1 @_ZN3smt24theory_special_relations5graph19add_non_strict_edgeEiiRK7svectorIN3sat7literalEjE(ptr noundef nonnull align 8 dereferenceable(368) %m_graph.i, i32 noundef %v2, i32 noundef %v1, ptr noundef nonnull align 8 dereferenceable(8) %ls)
          to label %land.end unwind label %lpad

land.end:                                         ; preds = %land.rhs, %invoke.cont2
  %6 = phi i1 [ false, %invoke.cont2 ], [ %call6, %land.rhs ]
  %7 = load ptr, ptr %ls, align 8
  %tobool.not.i.i.i = icmp eq ptr %7, null
  br i1 %tobool.not.i.i.i, label %_ZN7svectorIN3sat7literalEjED2Ev.exit, label %if.then.i.i.i

if.then.i.i.i:                                    ; preds = %land.end
  %add.ptr.i.i.i.i = getelementptr inbounds i8, ptr %7, i64 -8
  invoke void @_ZN6memory10deallocateEPv(ptr noundef nonnull %add.ptr.i.i.i.i)
          to label %_ZN7svectorIN3sat7literalEjED2Ev.exit unwind label %terminate.lpad.i.i

terminate.lpad.i.i:                               ; preds = %if.then.i.i.i
  %8 = landingpad { ptr, i32 }
          catch ptr null
  %9 = extractvalue { ptr, i32 } %8, 0
  call void @__clang_call_terminate(ptr %9) #21
  unreachable

_ZN7svectorIN3sat7literalEjED2Ev.exit:            ; preds = %land.end, %if.then.i.i.i
  ret i1 %6

lpad:                                             ; preds = %if.then.i19, %land.rhs, %invoke.cont
  %10 = landingpad { ptr, i32 }
          cleanup
  call void @_ZN7svectorIN3sat7literalEjED2Ev(ptr noundef nonnull align 8 dereferenceable(8) %ls) #22
  resume { ptr, i32 } %10
}